; Function Attrs: nounwind uwtable
define noalias nonnull ptr @l_Lake_RBArray_mkEmpty___rarg___boxed(ptr noundef %0, ptr noundef %1) #0 {
  %3 = ptrtoint ptr %1 to i64
  %4 = and i64 %3, 1
  %.not.i.i = icmp eq i64 %4, 0
  br i1 %.not.i.i, label %5, label %lean_mk_empty_array_with_capacity.exit.i

5:                                                ; preds = %2
  tail call void @lean_internal_panic_out_of_memory() #5
  unreachable

lean_mk_empty_array_with_capacity.exit.i:         ; preds = %2
  %6 = lshr i64 %3, 1
  %7 = shl i64 %6, 3
  %8 = add i64 %7, 24
  %9 = tail call ptr @lean_alloc_object(i64 noundef %8) #4
  store i32 1, ptr %9, align 4, !tbaa !8
  %10 = getelementptr inbounds nuw i8, ptr %9, i64 4
  %11 = load i32, ptr %10, align 4
  %12 = and i32 %11, 65535
  %13 = or disjoint i32 %12, -167772160
  store i32 %13, ptr %10, align 4
  %14 = getelementptr inbounds nuw i8, ptr %9, i64 8
  store i64 0, ptr %14, align 8, !tbaa !14
  %15 = getelementptr inbounds nuw i8, ptr %9, i64 16
  store i64 %6, ptr %15, align 8, !tbaa !14
  tail call void @lean_inc_heartbeat() #4
  %16 = tail call noalias ptr @mi_malloc_small(i64 noundef 24) #4
  %17 = icmp eq ptr %16, null
  br i1 %17, label %18, label %lean_dec.exit5

18:                                               ; preds = %lean_mk_empty_array_with_capacity.exit.i
  tail call void @lean_internal_panic_out_of_memory() #5
  unreachable

lean_dec.exit5:                                   ; preds = %lean_mk_empty_array_with_capacity.exit.i
  %19 = getelementptr inbounds nuw i8, ptr %16, i64 4
  store i32 1, ptr %16, align 4, !tbaa !8
  store i32 131096, ptr %19, align 4
  %20 = getelementptr inbounds nuw i8, ptr %16, i64 8
  store ptr inttoptr (i64 1 to ptr), ptr %20, align 8, !tbaa !4
  %21 = getelementptr inbounds nuw i8, ptr %16, i64 16
  store ptr %9, ptr %21, align 8, !tbaa !4
  %22 = ptrtoint ptr %0 to i64
  %23 = and i64 %22, 1
  %.not = icmp eq i64 %23, 0
  br i1 %.not, label %24, label %lean_dec.exit

24:                                               ; preds = %lean_dec.exit5
  %25 = load i32, ptr %0, align 4, !tbaa !8
  %26 = icmp sgt i32 %25, 1
  br i1 %26, label %27, label %29, !prof !13

27:                                               ; preds = %24
  %28 = add nsw i32 %25, -1
  store i32 %28, ptr %0, align 4, !tbaa !8
  br label %lean_dec.exit

29:                                               ; preds = %24
  %.not.i6 = icmp eq i32 %25, 0
  br i1 %.not.i6, label %lean_dec.exit, label %30

30:                                               ; preds = %29
  tail call void @lean_dec_ref_cold(ptr noundef nonnull %0) #4
  br label %lean_dec.exit

lean_dec.exit:                                    ; preds = %30, %29, %27, %lean_dec.exit5
  ret ptr %16
}